target datalayout = "e-m:e-p270:32:32-p271:32:32-p272:64:64-i64:64-i128:128-f80:128-n8:16:32:64-S128"
target triple = "x86_64-pc-linux-gnu"

%struct.Fra_Lcr_t_ = type { ptr, ptr, ptr, ptr, ptr, ptr, i32, i32, i32, i32, i32, i32, i32, i32, i32, i32, i64, i64, i64, i64, i64, i64 }
%struct.Aig_Man_t_ = type { ptr, ptr, ptr, ptr, ptr, ptr, ptr, %struct.Aig_Obj_t_, i32, i32, i32, i32, i32, i32, [7 x i32], i32, ptr, i32, ptr, i32, ptr, i32, i32, i32, ptr, i32, i32, i32, i32, i32, ptr, ptr, i32, ptr, ptr, i32, ptr, ptr, i32, i32, i32, ptr, ptr, ptr, ptr, ptr, ptr, ptr, ptr, ptr, ptr, ptr, ptr, ptr, ptr, i32, ptr, ptr, ptr, ptr, i32, i64, i64, i64, ptr, ptr }
%struct.Aig_Obj_t_ = type { %union.anon, ptr, ptr, i64, i32, i32, %union.anon.0 }
%union.anon = type { ptr }
%union.anon.0 = type { ptr }
%struct.Vec_Ptr_t_ = type { i32, i32, ptr }
%struct.Fra_Cla_t_ = type { ptr, ptr, ptr, ptr, ptr, ptr, ptr, ptr, ptr, i32, i32, ptr, ptr, ptr, ptr }

; Function Attrs: nounwind uwtable
define internal ptr @Aig_ManCo(ptr noundef %0, i32 noundef %1) #0 {
  %3 = alloca ptr, align 8
  %4 = alloca i32, align 4
  store ptr %0, ptr %3, align 8
  store i32 %1, ptr %4, align 4
  %5 = load ptr, ptr %3, align 8
  %6 = getelementptr inbounds %struct.Aig_Man_t_, ptr %5, i32 0, i32 3
  %7 = load ptr, ptr %6, align 8
  %8 = load i32, ptr %4, align 4
  %9 = call ptr @Vec_PtrEntry(ptr noundef %7, i32 noundef %8)
  ret ptr %9
}

; Function Attrs: nounwind uwtable
define internal ptr @Vec_PtrEntry(ptr noundef %0, i32 noundef %1) #0 {
  %3 = alloca ptr, align 8
  %4 = alloca i32, align 4
  store ptr %0, ptr %3, align 8
  store i32 %1, ptr %4, align 4
  %5 = load ptr, ptr %3, align 8
  %6 = getelementptr inbounds %struct.Vec_Ptr_t_, ptr %5, i32 0, i32 2
  %7 = load ptr, ptr %6, align 8
  %8 = load i32, ptr %4, align 4
  %9 = sext i32 %8 to i64
  %10 = getelementptr inbounds ptr, ptr %7, i64 %9
  %11 = load ptr, ptr %10, align 8
  ret ptr %11
}

; Function Attrs: nounwind uwtable
define internal i32 @Vec_PtrSize(ptr noundef %0) #0 {
  %2 = alloca ptr, align 8
  store ptr %0, ptr %2, align 8
  %3 = load ptr, ptr %2, align 8
  %4 = getelementptr inbounds %struct.Vec_Ptr_t_, ptr %3, i32 0, i32 1
  %5 = load i32, ptr %4, align 4
  ret i32 %5
}

; Function Attrs: nounwind uwtable
define internal i32 @Aig_ManCiNum(ptr noundef %0) #0 {
  %2 = alloca ptr, align 8
  store ptr %0, ptr %2, align 8
  %3 = load ptr, ptr %2, align 8
  %4 = getelementptr inbounds %struct.Aig_Man_t_, ptr %3, i32 0, i32 14
  %5 = getelementptr inbounds [7 x i32], ptr %4, i64 0, i64 2
  %6 = load i32, ptr %5, align 8
  ret i32 %6
}

; Function Attrs: nounwind uwtable
define internal i32 @Aig_ManCoNum(ptr noundef %0) #0 {
  %2 = alloca ptr, align 8
  store ptr %0, ptr %2, align 8
  %3 = load ptr, ptr %2, align 8
  %4 = getelementptr inbounds %struct.Aig_Man_t_, ptr %3, i32 0, i32 14
  %5 = getelementptr inbounds [7 x i32], ptr %4, i64 0, i64 3
  %6 = load i32, ptr %5, align 4
  ret i32 %6
}

; Function Attrs: nounwind uwtable
define void @Fra_ClassNodesMark(ptr noundef %0) #0 {
  %2 = alloca ptr, align 8
  %3 = alloca ptr, align 8
  %4 = alloca ptr, align 8
  %5 = alloca i32, align 4
  %6 = alloca i32, align 4
  %7 = alloca i32, align 4
  store ptr %0, ptr %2, align 8
  %8 = load ptr, ptr %2, align 8
  %9 = getelementptr inbounds %struct.Fra_Lcr_t_, ptr %8, i32 0, i32 1
  %10 = load ptr, ptr %9, align 8
  %11 = getelementptr inbounds %struct.Fra_Cla_t_, ptr %10, i32 0, i32 0
  %12 = load ptr, ptr %11, align 8
  %13 = call i32 @Aig_ManCoNum(ptr noundef %12)
  %14 = load ptr, ptr %2, align 8
  %15 = getelementptr inbounds %struct.Fra_Lcr_t_, ptr %14, i32 0, i32 1
  %16 = load ptr, ptr %15, align 8
  %17 = getelementptr inbounds %struct.Fra_Cla_t_, ptr %16, i32 0, i32 0
  %18 = load ptr, ptr %17, align 8
  %19 = call i32 @Aig_ManCiNum(ptr noundef %18)
  %20 = sub nsw i32 %13, %19
  store i32 %20, ptr %7, align 4
  store i32 0, ptr %5, align 4
  br label %21

21:                                               ; preds = %60, %1
  %22 = load i32, ptr %5, align 4
  %23 = load ptr, ptr %2, align 8
  %24 = getelementptr inbounds %struct.Fra_Lcr_t_, ptr %23, i32 0, i32 1
  %25 = load ptr, ptr %24, align 8
  %26 = getelementptr inbounds %struct.Fra_Cla_t_, ptr %25, i32 0, i32 3
  %27 = load ptr, ptr %26, align 8
  %28 = call i32 @Vec_PtrSize(ptr noundef %27)
  %29 = icmp slt i32 %22, %28
  br i1 %29, label %30, label %38

30:                                               ; preds = %21
  %31 = load ptr, ptr %2, align 8
  %32 = getelementptr inbounds %struct.Fra_Lcr_t_, ptr %31, i32 0, i32 1
  %33 = load ptr, ptr %32, align 8
  %34 = getelementptr inbounds %struct.Fra_Cla_t_, ptr %33, i32 0, i32 3
  %35 = load ptr, ptr %34, align 8
  %36 = load i32, ptr %5, align 4
  %37 = call ptr @Vec_PtrEntry(ptr noundef %35, i32 noundef %36)
  store ptr %37, ptr %3, align 8
  br label %38

38:                                               ; preds = %30, %21
  %39 = phi i1 [ false, %21 ], [ true, %30 ]
  br i1 %39, label %40, label %63

40:                                               ; preds = %38
  %41 = load ptr, ptr %2, align 8
  %42 = getelementptr inbounds %struct.Fra_Lcr_t_, ptr %41, i32 0, i32 1
  %43 = load ptr, ptr %42, align 8
  %44 = getelementptr inbounds %struct.Fra_Cla_t_, ptr %43, i32 0, i32 0
  %45 = load ptr, ptr %44, align 8
  %46 = load i32, ptr %7, align 4
  %47 = sext i32 %46 to i64
  %48 = load ptr, ptr %3, align 8
  %49 = getelementptr inbounds %struct.Aig_Obj_t_, ptr %48, i32 0, i32 0
  %50 = load ptr, ptr %49, align 8
  %51 = ptrtoint ptr %50 to i64
  %52 = add nsw i64 %47, %51
  %53 = trunc i64 %52 to i32
  %54 = call ptr @Aig_ManCo(ptr noundef %45, i32 noundef %53)
  store ptr %54, ptr %3, align 8
  %55 = load ptr, ptr %3, align 8
  %56 = getelementptr inbounds %struct.Aig_Obj_t_, ptr %55, i32 0, i32 3
  %57 = load i64, ptr %56, align 8
  %58 = and i64 %57, -17
  %59 = or i64 %58, 16
  store i64 %59, ptr %56, align 8
  br label %60

60:                                               ; preds = %40
  %61 = load i32, ptr %5, align 4
  %62 = add nsw i32 %61, 1
  store i32 %62, ptr %5, align 4
  br label %21, !llvm.loop !17

63:                                               ; preds = %38
  store i32 0, ptr %5, align 4
  br label %64

64:                                               ; preds = %119, %63
  %65 = load i32, ptr %5, align 4
  %66 = load ptr, ptr %2, align 8
  %67 = getelementptr inbounds %struct.Fra_Lcr_t_, ptr %66, i32 0, i32 1
  %68 = load ptr, ptr %67, align 8
  %69 = getelementptr inbounds %struct.Fra_Cla_t_, ptr %68, i32 0, i32 2
  %70 = load ptr, ptr %69, align 8
  %71 = call i32 @Vec_PtrSize(ptr noundef %70)
  %72 = icmp slt i32 %65, %71
  br i1 %72, label %73, label %81

73:                                               ; preds = %64
  %74 = load ptr, ptr %2, align 8
  %75 = getelementptr inbounds %struct.Fra_Lcr_t_, ptr %74, i32 0, i32 1
  %76 = load ptr, ptr %75, align 8
  %77 = getelementptr inbounds %struct.Fra_Cla_t_, ptr %76, i32 0, i32 2
  %78 = load ptr, ptr %77, align 8
  %79 = load i32, ptr %5, align 4
  %80 = call ptr @Vec_PtrEntry(ptr noundef %78, i32 noundef %79)
  store ptr %80, ptr %4, align 8
  br label %81

81:                                               ; preds = %73, %64
  %82 = phi i1 [ false, %64 ], [ true, %73 ]
  br i1 %82, label %83, label %122

83:                                               ; preds = %81
  store i32 0, ptr %6, align 4
  br label %84

84:                                               ; preds = %115, %83
  %85 = load ptr, ptr %4, align 8
  %86 = load i32, ptr %6, align 4
  %87 = sext i32 %86 to i64
  %88 = getelementptr inbounds ptr, ptr %85, i64 %87
  %89 = load ptr, ptr %88, align 8
  %90 = icmp ne ptr %89, null
  br i1 %90, label %91, label %118

91:                                               ; preds = %84
  %92 = load ptr, ptr %2, align 8
  %93 = getelementptr inbounds %struct.Fra_Lcr_t_, ptr %92, i32 0, i32 1
  %94 = load ptr, ptr %93, align 8
  %95 = getelementptr inbounds %struct.Fra_Cla_t_, ptr %94, i32 0, i32 0
  %96 = load ptr, ptr %95, align 8
  %97 = load i32, ptr %7, align 4
  %98 = sext i32 %97 to i64
  %99 = load ptr, ptr %4, align 8
  %100 = load i32, ptr %6, align 4
  %101 = sext i32 %100 to i64
  %102 = getelementptr inbounds ptr, ptr %99, i64 %101
  %103 = load ptr, ptr %102, align 8
  %104 = getelementptr inbounds %struct.Aig_Obj_t_, ptr %103, i32 0, i32 0
  %105 = load ptr, ptr %104, align 8
  %106 = ptrtoint ptr %105 to i64
  %107 = add nsw i64 %98, %106
  %108 = trunc i64 %107 to i32
  %109 = call ptr @Aig_ManCo(ptr noundef %96, i32 noundef %108)
  store ptr %109, ptr %3, align 8
  %110 = load ptr, ptr %3, align 8
  %111 = getelementptr inbounds %struct.Aig_Obj_t_, ptr %110, i32 0, i32 3
  %112 = load i64, ptr %111, align 8
  %113 = and i64 %112, -17
  %114 = or i64 %113, 16
  store i64 %114, ptr %111, align 8
  br label %115

115:                                              ; preds = %91
  %116 = load i32, ptr %6, align 4
  %117 = add nsw i32 %116, 1
  store i32 %117, ptr %6, align 4
  br label %84, !llvm.loop !18

118:                                              ; preds = %84
  br label %119

119:                                              ; preds = %118
  %120 = load i32, ptr %5, align 4
  %121 = add nsw i32 %120, 1
  store i32 %121, ptr %5, align 4
  br label %64, !llvm.loop !19

122:                                              ; preds = %81
  ret void
}