; Function Attrs: nofree norecurse nosync nounwind memory(readwrite, inaccessiblemem: none) uwtable
define void @Fra_ClassNodesMark(ptr noundef readonly captures(none) %0) local_unnamed_addr #7 {
  %2 = getelementptr inbounds nuw i8, ptr %0, i64 8
  %3 = load ptr, ptr %2, align 8
  %4 = load ptr, ptr %3, align 8
  %5 = getelementptr i8, ptr %4, i64 140
  %.val33 = load i32, ptr %5, align 4
  %6 = getelementptr i8, ptr %4, i64 136
  %.val = load i32, ptr %6, align 8
  %7 = sub nsw i32 %.val33, %.val
  %8 = getelementptr inbounds nuw i8, ptr %3, i64 24
  %9 = load ptr, ptr %8, align 8
  %10 = getelementptr i8, ptr %9, i64 4
  %.val2834 = load i32, ptr %10, align 4
  %11 = icmp sgt i32 %.val2834, 0
  br i1 %11, label %.lr.ph, label %.critedge.preheader

.critedge.preheader:                              ; preds = %.lr.ph, %1
  %12 = phi ptr [ %3, %1 ], [ %35, %.lr.ph ]
  %13 = getelementptr inbounds nuw i8, ptr %12, i64 16
  %14 = load ptr, ptr %13, align 8
  %15 = getelementptr i8, ptr %14, i64 4
  %.val2739 = load i32, ptr %15, align 4
  %16 = icmp sgt i32 %.val2739, 0
  br i1 %16, label %.lr.ph41, label %.critedge2

.lr.ph:                                           ; preds = %1, %.lr.ph
  %indvars.iv = phi i64 [ %indvars.iv.next, %.lr.ph ], [ 0, %1 ]
  %17 = phi ptr [ %37, %.lr.ph ], [ %9, %1 ]
  %18 = phi ptr [ %35, %.lr.ph ], [ %3, %1 ]
  %19 = getelementptr i8, ptr %17, i64 8
  %.val30 = load ptr, ptr %19, align 8
  %20 = getelementptr inbounds nuw ptr, ptr %.val30, i64 %indvars.iv
  %21 = load ptr, ptr %20, align 8
  %22 = load ptr, ptr %18, align 8
  %23 = load ptr, ptr %21, align 8
  %24 = ptrtoint ptr %23 to i64
  %25 = trunc i64 %24 to i32
  %26 = add i32 %7, %25
  %27 = getelementptr i8, ptr %22, i64 24
  %.val32 = load ptr, ptr %27, align 8
  %28 = getelementptr i8, ptr %.val32, i64 8
  %.val32.val = load ptr, ptr %28, align 8
  %29 = sext i32 %26 to i64
  %30 = getelementptr inbounds ptr, ptr %.val32.val, i64 %29
  %31 = load ptr, ptr %30, align 8
  %32 = getelementptr inbounds nuw i8, ptr %31, i64 24
  %33 = load i64, ptr %32, align 8
  %34 = or i64 %33, 16
  store i64 %34, ptr %32, align 8
  %indvars.iv.next = add nuw nsw i64 %indvars.iv, 1
  %35 = load ptr, ptr %2, align 8
  %36 = getelementptr inbounds nuw i8, ptr %35, i64 24
  %37 = load ptr, ptr %36, align 8
  %38 = getelementptr i8, ptr %37, i64 4
  %.val28 = load i32, ptr %38, align 4
  %39 = sext i32 %.val28 to i64
  %40 = icmp slt i64 %indvars.iv.next, %39
  br i1 %40, label %.lr.ph, label %.critedge.preheader, !llvm.loop !17

.lr.ph41:                                         ; preds = %.critedge.preheader, %.critedge
  %41 = phi ptr [ %64, %.critedge ], [ %12, %.critedge.preheader ]
  %indvars.iv46 = phi i64 [ %indvars.iv.next47, %.critedge ], [ 0, %.critedge.preheader ]
  %42 = phi ptr [ %66, %.critedge ], [ %14, %.critedge.preheader ]
  %43 = getelementptr i8, ptr %42, i64 8
  %.val29 = load ptr, ptr %43, align 8
  %44 = getelementptr inbounds nuw ptr, ptr %.val29, i64 %indvars.iv46
  %45 = load ptr, ptr %44, align 8
  %46 = load ptr, ptr %45, align 8
  %.not36 = icmp eq ptr %46, null
  br i1 %.not36, label %.critedge, label %.lr.ph38

.lr.ph38:                                         ; preds = %.lr.ph41, %.lr.ph38
  %indvars.iv43 = phi i64 [ %indvars.iv.next44, %.lr.ph38 ], [ 0, %.lr.ph41 ]
  %47 = phi ptr [ %63, %.lr.ph38 ], [ %46, %.lr.ph41 ]
  %48 = load ptr, ptr %2, align 8
  %49 = load ptr, ptr %48, align 8
  %50 = load ptr, ptr %47, align 8
  %51 = ptrtoint ptr %50 to i64
  %52 = trunc i64 %51 to i32
  %53 = add i32 %7, %52
  %54 = getelementptr i8, ptr %49, i64 24
  %.val31 = load ptr, ptr %54, align 8
  %55 = getelementptr i8, ptr %.val31, i64 8
  %.val31.val = load ptr, ptr %55, align 8
  %56 = sext i32 %53 to i64
  %57 = getelementptr inbounds ptr, ptr %.val31.val, i64 %56
  %58 = load ptr, ptr %57, align 8
  %59 = getelementptr inbounds nuw i8, ptr %58, i64 24
  %60 = load i64, ptr %59, align 8
  %61 = or i64 %60, 16
  store i64 %61, ptr %59, align 8
  %indvars.iv.next44 = add nuw nsw i64 %indvars.iv43, 1
  %62 = getelementptr inbounds nuw ptr, ptr %45, i64 %indvars.iv.next44
  %63 = load ptr, ptr %62, align 8
  %.not = icmp eq ptr %63, null
  br i1 %.not, label %.critedge.loopexit, label %.lr.ph38, !llvm.loop !18

.critedge.loopexit:                               ; preds = %.lr.ph38
  %.pre = load ptr, ptr %2, align 8
  br label %.critedge

.critedge:                                        ; preds = %.critedge.loopexit, %.lr.ph41
  %64 = phi ptr [ %.pre, %.critedge.loopexit ], [ %41, %.lr.ph41 ]
  %indvars.iv.next47 = add nuw nsw i64 %indvars.iv46, 1
  %65 = getelementptr inbounds nuw i8, ptr %64, i64 16
  %66 = load ptr, ptr %65, align 8
  %67 = getelementptr i8, ptr %66, i64 4
  %.val27 = load i32, ptr %67, align 4
  %68 = sext i32 %.val27 to i64
  %69 = icmp slt i64 %indvars.iv.next47, %68
  br i1 %69, label %.lr.ph41, label %.critedge2, !llvm.loop !19

.critedge2:                                       ; preds = %.critedge, %.critedge.preheader
  ret void
}